; generated by ARM C/C++ Compiler, 5.03 [Build 76]
; commandline ArmCC [--list --split_sections --debug -c --asm --interleave -o.\obj\stm32f10x_it.o --asm_dir=.\List\ --list_dir=.\List\ --depend=.\obj\stm32f10x_it.d --cpu=Cortex-M3 --apcs=interwork -O0 -I.\Source\APP -I.\Source\BSP -I.\Source\uCOS-II\Source -I.\Source\uCOS-II\uC-CPU -I.\Source\uCOS-II\uC-LIB -I.\Source\uCOS-II\Ports -I.\Source\uCGUI\Config -I.\Source\uCGUI\emWinDemo -I.\Source\uCGUI\inc -I.\Source\uCGUI\LCDDriver -I.\Source\uCGUI\uCGUIDemo -I.\Source\Libraries\STM32F10x_StdPeriph_Driver\inc -I.\Source\Libraries\CMSIS\Core\CM3 -I.\Source\APP\HMI -I"D:\Program Files (x86)\keil\ARM\RV31\INC" -I"D:\Program Files (x86)\keil\ARM\PACK\ARM\CMSIS\3.20.3\CMSIS\Include" -I"D:\Program Files (x86)\keil\ARM\PACK\Keil\STM32F1xx_DFP\1.0.2\Device\Include" -DSTM32F10X_HD --omf_browse=.\obj\stm32f10x_it.crf Source\APP\stm32f10x_it.c]
                          THUMB

                          AREA ||i.ADC3_IRQHandler||, CODE, READONLY, ALIGN=1

                  ADC3_IRQHandler PROC
;;;808    *******************************************************************************/
;;;809    void ADC3_IRQHandler(void)
000000  4770              BX       lr
;;;810    {
;;;811    }
;;;812    
                          ENDP


                          AREA ||i.ADC_IRQHandler||, CODE, READONLY, ALIGN=1

                  ADC_IRQHandler PROC
;;;415    *******************************************************************************/
;;;416    void ADC_IRQHandler(void)
000000  4770              BX       lr
;;;417    {
;;;418    }
;;;419    
                          ENDP


                          AREA ||i.BusFaultException||, CODE, READONLY, ALIGN=1

                  BusFaultException PROC
;;;101    *******************************************************************************/
;;;102    void BusFaultException(void)
000000  bf00              NOP      
                  |L3.2|
;;;103    {
;;;104        /* Go to infinite loop when Bus Fault exception occurs */
;;;105        while(1) {
000002  e7fe              B        |L3.2|
;;;106        }
;;;107    }
;;;108    
                          ENDP


                          AREA ||i.CAN_RX1_IRQHandler||, CODE, READONLY, ALIGN=1

                  CAN_RX1_IRQHandler PROC
;;;450    *******************************************************************************/
;;;451    void CAN_RX1_IRQHandler(void)
000000  4770              BX       lr
;;;452    {
;;;453    }
;;;454    
                          ENDP


                          AREA ||i.CAN_SCE_IRQHandler||, CODE, READONLY, ALIGN=1

                  CAN_SCE_IRQHandler PROC
;;;461    *******************************************************************************/
;;;462    void CAN_SCE_IRQHandler(void)
000000  4770              BX       lr
;;;463    {
;;;464    }
;;;465    
                          ENDP


                          AREA ||i.DMA2_Channel1_IRQHandler||, CODE, READONLY, ALIGN=1

                  DMA2_Channel1_IRQHandler PROC
;;;907    *******************************************************************************/
;;;908    void DMA2_Channel1_IRQHandler(void)
000000  4770              BX       lr
;;;909    {
;;;910    }
;;;911    
                          ENDP


                          AREA ||i.DMA2_Channel2_IRQHandler||, CODE, READONLY, ALIGN=1

                  DMA2_Channel2_IRQHandler PROC
;;;918    *******************************************************************************/
;;;919    void DMA2_Channel2_IRQHandler(void)
000000  4770              BX       lr
;;;920    {
;;;921    }
;;;922    
                          ENDP


                          AREA ||i.DMA2_Channel3_IRQHandler||, CODE, READONLY, ALIGN=1

                  DMA2_Channel3_IRQHandler PROC
;;;929    *******************************************************************************/
;;;930    void DMA2_Channel3_IRQHandler(void)
000000  4770              BX       lr
;;;931    {
;;;932    }
;;;933    
                          ENDP


                          AREA ||i.DMA2_Channel4_5_IRQHandler||, CODE, READONLY, ALIGN=1

                  DMA2_Channel4_5_IRQHandler PROC
;;;941    *******************************************************************************/
;;;942    void DMA2_Channel4_5_IRQHandler(void)
000000  4770              BX       lr
;;;943    {
;;;944    }
;;;945    
                          ENDP


                          AREA ||i.DMAChannel1_IRQHandler||, CODE, READONLY, ALIGN=1

                  DMAChannel1_IRQHandler PROC
;;;338    *******************************************************************************/
;;;339    void DMAChannel1_IRQHandler(void)
000000  4770              BX       lr
;;;340    {
;;;341    }
;;;342    
                          ENDP


                          AREA ||i.DMAChannel2_IRQHandler||, CODE, READONLY, ALIGN=1

                  DMAChannel2_IRQHandler PROC
;;;349    *******************************************************************************/
;;;350    void DMAChannel2_IRQHandler(void)
000000  4770              BX       lr
;;;351    {
;;;352    }
;;;353    
                          ENDP


                          AREA ||i.DMAChannel3_IRQHandler||, CODE, READONLY, ALIGN=1

                  DMAChannel3_IRQHandler PROC
;;;360    *******************************************************************************/
;;;361    void DMAChannel3_IRQHandler(void)
000000  4770              BX       lr
;;;362    {
;;;363    }
;;;364    
                          ENDP


                          AREA ||i.DMAChannel4_IRQHandler||, CODE, READONLY, ALIGN=1

                  DMAChannel4_IRQHandler PROC
;;;371    *******************************************************************************/
;;;372    void DMAChannel4_IRQHandler(void)
000000  4770              BX       lr
;;;373    {
;;;374    }
;;;375    
                          ENDP


                          AREA ||i.DMAChannel5_IRQHandler||, CODE, READONLY, ALIGN=1

                  DMAChannel5_IRQHandler PROC
;;;382    *******************************************************************************/
;;;383    void DMAChannel5_IRQHandler(void)
000000  4770              BX       lr
;;;384    {
;;;385    }
;;;386    
                          ENDP


                          AREA ||i.DMAChannel6_IRQHandler||, CODE, READONLY, ALIGN=1

                  DMAChannel6_IRQHandler PROC
;;;393    *******************************************************************************/
;;;394    void DMAChannel6_IRQHandler(void)
000000  4770              BX       lr
;;;395    {
;;;396    }
;;;397    
                          ENDP


                          AREA ||i.DMAChannel7_IRQHandler||, CODE, READONLY, ALIGN=1

                  DMAChannel7_IRQHandler PROC
;;;404    *******************************************************************************/
;;;405    void DMAChannel7_IRQHandler(void)
000000  4770              BX       lr
;;;406    {
;;;407    }
;;;408    
                          ENDP


                          AREA ||i.DebugMonitor||, CODE, READONLY, ALIGN=1

                  DebugMonitor PROC
;;;129    *******************************************************************************/
;;;130    void DebugMonitor(void)
000000  4770              BX       lr
;;;131    {
;;;132    }
;;;133    
                          ENDP


                          AREA ||i.EXTI0_IRQHandler||, CODE, READONLY, ALIGN=1

                  EXTI0_IRQHandler PROC
;;;262    *******************************************************************************/
;;;263    void EXTI0_IRQHandler(void)
000000  4770              BX       lr
;;;264    {
;;;265    }
;;;266    
                          ENDP


                          AREA ||i.EXTI15_10_IRQHandler||, CODE, READONLY, ALIGN=1

                  EXTI15_10_IRQHandler PROC
;;;729    *******************************************************************************/
;;;730    void EXTI15_10_IRQHandler(void)
000000  4770              BX       lr
;;;731    {
;;;732    }
;;;733    
                          ENDP


                          AREA ||i.EXTI1_IRQHandler||, CODE, READONLY, ALIGN=1

                  EXTI1_IRQHandler PROC
;;;273    *******************************************************************************/
;;;274    void EXTI1_IRQHandler(void)
000000  4770              BX       lr
;;;275    {
;;;276    }
;;;277    
                          ENDP


                          AREA ||i.EXTI2_IRQHandler||, CODE, READONLY, ALIGN=1

                  EXTI2_IRQHandler PROC
;;;284    *******************************************************************************/
;;;285    void EXTI2_IRQHandler(void)
000000  4770              BX       lr
;;;286    {
;;;287    }
;;;288    
                          ENDP


                          AREA ||i.EXTI3_IRQHandler||, CODE, READONLY, ALIGN=1

                  EXTI3_IRQHandler PROC
;;;295    *******************************************************************************/
;;;296    void EXTI3_IRQHandler(void)
000000  4770              BX       lr
;;;297    {
;;;298    }
;;;299    
                          ENDP


                          AREA ||i.EXTI4_IRQHandler||, CODE, READONLY, ALIGN=2

                  EXTI4_IRQHandler PROC
;;;306    *******************************************************************************/
;;;307    void EXTI4_IRQHandler(void)
000000  b510              PUSH     {r4,lr}
;;;308    {
;;;309        OS_CPU_SR  cpu_sr;
;;;310        OS_ENTER_CRITICAL();   /* Tell uC/OS-II that we are starting an ISR*/
000002  f7fffffe          BL       OS_CPU_SR_Save
000006  4604              MOV      r4,r0
;;;311        OSIntNesting++;
000008  4808              LDR      r0,|L23.44|
00000a  7800              LDRB     r0,[r0,#0]  ; OSIntNesting
00000c  1c40              ADDS     r0,r0,#1
00000e  4907              LDR      r1,|L23.44|
000010  7008              STRB     r0,[r1,#0]
;;;312        OS_EXIT_CRITICAL();
000012  4620              MOV      r0,r4
000014  f7fffffe          BL       OS_CPU_SR_Restore
;;;313    
;;;314        /*
;;;315        if(LedTick&0x0001)
;;;316          {
;;;317          	GPIO_SetBits(GPIOC,GPIO_Pin_13);
;;;318          }
;;;319        else
;;;320          {
;;;321          	 GPIO_ResetBits(GPIOC,GPIO_Pin_13);
;;;322          } */
;;;323        if(EXTI_GetITStatus(EXTI_Line4) != RESET) {
000018  2010              MOVS     r0,#0x10
00001a  f7fffffe          BL       EXTI_GetITStatus
00001e  b110              CBZ      r0,|L23.38|
;;;324            //OSTaskResume(APP_TASK_START_PRIO);
;;;325            /* Clear the EXTI Line 3 */
;;;326            EXTI_ClearITPendingBit(EXTI_Line4);
000020  2010              MOVS     r0,#0x10
000022  f7fffffe          BL       EXTI_ClearITPendingBit
                  |L23.38|
;;;327        }
;;;328    
;;;329        OSIntExit();  //在os_core.c文件里定义,如果有更高优先级的任务就绪了,则执行一次任务切换
000026  f7fffffe          BL       OSIntExit
;;;330    }
00002a  bd10              POP      {r4,pc}
;;;331    
                          ENDP

                  |L23.44|
                          DCD      OSIntNesting

                          AREA ||i.EXTI9_5_IRQHandler||, CODE, READONLY, ALIGN=1

                  EXTI9_5_IRQHandler PROC
;;;472    *******************************************************************************/
;;;473    void EXTI9_5_IRQHandler(void)
000000  4770              BX       lr
;;;474    {
;;;475    }
;;;476    
                          ENDP


                          AREA ||i.FLASH_IRQHandler||, CODE, READONLY, ALIGN=1

                  FLASH_IRQHandler PROC
;;;240    *******************************************************************************/
;;;241    void FLASH_IRQHandler(void)
000000  4770              BX       lr
;;;242    {
;;;243    }
;;;244    
                          ENDP


                          AREA ||i.FSMC_IRQHandler||, CODE, READONLY, ALIGN=1

                  FSMC_IRQHandler PROC
;;;819    *******************************************************************************/
;;;820    void FSMC_IRQHandler(void)
000000  4770              BX       lr
;;;821    {
;;;822    }
;;;823    
                          ENDP


                          AREA ||i.HardFaultException||, CODE, READONLY, ALIGN=1

                  HardFaultException PROC
;;;73     *******************************************************************************/
;;;74     void HardFaultException(void)
000000  bf00              NOP      
                  |L27.2|
;;;75     {
;;;76         /* Go to infinite loop when Hard Fault exception occurs */
;;;77         while(1) {
000002  e7fe              B        |L27.2|
;;;78         }
;;;79     }
;;;80     
                          ENDP


                          AREA ||i.I2C1_ER_IRQHandler||, CODE, READONLY, ALIGN=1

                  I2C1_ER_IRQHandler PROC
;;;574    *******************************************************************************/
;;;575    void I2C1_ER_IRQHandler(void)
000000  4770              BX       lr
;;;576    {
;;;577    }
;;;578    
                          ENDP


                          AREA ||i.I2C1_EV_IRQHandler||, CODE, READONLY, ALIGN=1

                  I2C1_EV_IRQHandler PROC
;;;563    *******************************************************************************/
;;;564    void I2C1_EV_IRQHandler(void)
000000  4770              BX       lr
;;;565    {
;;;566    }
;;;567    
                          ENDP


                          AREA ||i.I2C2_ER_IRQHandler||, CODE, READONLY, ALIGN=1

                  I2C2_ER_IRQHandler PROC
;;;596    *******************************************************************************/
;;;597    void I2C2_ER_IRQHandler(void)
000000  4770              BX       lr
;;;598    {
;;;599    }
;;;600    
                          ENDP


                          AREA ||i.I2C2_EV_IRQHandler||, CODE, READONLY, ALIGN=1

                  I2C2_EV_IRQHandler PROC
;;;585    *******************************************************************************/
;;;586    void I2C2_EV_IRQHandler(void)
000000  4770              BX       lr
;;;587    {
;;;588    }
;;;589    
                          ENDP


                          AREA ||i.MemManageException||, CODE, READONLY, ALIGN=1

                  MemManageException PROC
;;;87     *******************************************************************************/
;;;88     void MemManageException(void)
000000  bf00              NOP      
                  |L32.2|
;;;89     {
;;;90         /* Go to infinite loop when Memory Manage exception occurs */
;;;91         while(1) {
000002  e7fe              B        |L32.2|
;;;92         }
;;;93     }
;;;94     
                          ENDP


                          AREA ||i.NMIException||, CODE, READONLY, ALIGN=1

                  NMIException PROC
;;;62     *******************************************************************************/
;;;63     void NMIException(void)
000000  4770              BX       lr
;;;64     {
;;;65     }
;;;66     
                          ENDP


                          AREA ||i.PVD_IRQHandler||, CODE, READONLY, ALIGN=1

                  PVD_IRQHandler PROC
;;;192    *******************************************************************************/
;;;193    void PVD_IRQHandler(void)
000000  4770              BX       lr
;;;194    {
;;;195    }
;;;196    
                          ENDP


                          AREA ||i.PendSVC||, CODE, READONLY, ALIGN=1

                  PendSVC PROC
;;;151    *******************************************************************************/
;;;152    void PendSVC(void)
000000  4770              BX       lr
;;;153    {
;;;154    }
;;;155    
                          ENDP


                          AREA ||i.RCC_IRQHandler||, CODE, READONLY, ALIGN=1

                  RCC_IRQHandler PROC
;;;251    *******************************************************************************/
;;;252    void RCC_IRQHandler(void)
000000  4770              BX       lr
;;;253    {
;;;254    }
;;;255    
                          ENDP


                          AREA ||i.RTCAlarm_IRQHandler||, CODE, READONLY, ALIGN=1

                  RTCAlarm_IRQHandler PROC
;;;740    *******************************************************************************/
;;;741    void RTCAlarm_IRQHandler(void)
000000  4770              BX       lr
;;;742    {
;;;743    }
;;;744    
                          ENDP


                          AREA ||i.RTC_IRQHandler||, CODE, READONLY, ALIGN=1

                  RTC_IRQHandler PROC
;;;214    *******************************************************************************/
;;;215    void RTC_IRQHandler(void)
000000  b510              PUSH     {r4,lr}
;;;216    {
;;;217        /* If counter is equal to 86339: one day was elapsed */
;;;218        if((RTC_GetCounter() / 3600 == 23) && (((RTC_GetCounter() % 3600) / 60) == 59) &&
000002  f7fffffe          BL       RTC_GetCounter
000006  f44f6161          MOV      r1,#0xe10
00000a  fbb0f0f1          UDIV     r0,r0,r1
00000e  2817              CMP      r0,#0x17
000010  d122              BNE      |L38.88|
000012  f7fffffe          BL       RTC_GetCounter
000016  f44f6161          MOV      r1,#0xe10
00001a  fbb0f2f1          UDIV     r2,r0,r1
00001e  fb010012          MLS      r0,r1,r2,r0
000022  213c              MOVS     r1,#0x3c
000024  fbb0f0f1          UDIV     r0,r0,r1
000028  283b              CMP      r0,#0x3b
00002a  d115              BNE      |L38.88|
;;;219                (((RTC_GetCounter() % 3600) % 60) == 59)) {        /* 23*3600 + 59*60 + 59 = 86339 */
00002c  f7fffffe          BL       RTC_GetCounter
000030  f44f6161          MOV      r1,#0xe10
000034  fbb0f2f1          UDIV     r2,r0,r1
000038  fb010012          MLS      r0,r1,r2,r0
00003c  213c              MOVS     r1,#0x3c
00003e  fbb0f2f1          UDIV     r2,r0,r1
000042  fb010012          MLS      r0,r1,r2,r0
000046  283b              CMP      r0,#0x3b
000048  d106              BNE      |L38.88|
;;;220            /* Wait until last write operation on RTC registers has finished */
;;;221            RTC_WaitForLastTask();
00004a  f7fffffe          BL       RTC_WaitForLastTask
;;;222            /* Reset counter value */
;;;223            RTC_SetCounter(0x0);
00004e  2000              MOVS     r0,#0
000050  f7fffffe          BL       RTC_SetCounter
;;;224            /* Wait until last write operation on RTC registers has finished */
;;;225            RTC_WaitForLastTask();
000054  f7fffffe          BL       RTC_WaitForLastTask
                  |L38.88|
;;;226            /* Increment the date */
;;;227            // Date_Update();
;;;228        }
;;;229    
;;;230        /* Clear the RTC Second Interrupt pending bit */
;;;231        RTC_ClearITPendingBit(RTC_IT_SEC);
000058  2001              MOVS     r0,#1
00005a  f7fffffe          BL       RTC_ClearITPendingBit
;;;232    }
00005e  bd10              POP      {r4,pc}
;;;233    
                          ENDP


                          AREA ||i.SDIO_IRQHandler||, CODE, READONLY, ALIGN=1

                  SDIO_IRQHandler PROC
;;;830    *******************************************************************************/
;;;831    void SDIO_IRQHandler(void)
000000  4770              BX       lr
;;;832    {
;;;833    }
;;;834    
                          ENDP


                          AREA ||i.SPI1_IRQHandler||, CODE, READONLY, ALIGN=1

                  SPI1_IRQHandler PROC
;;;607    *******************************************************************************/
;;;608    void SPI1_IRQHandler(void)
000000  4770              BX       lr
;;;609    {
;;;610    }
;;;611    
                          ENDP


                          AREA ||i.SPI2_IRQHandler||, CODE, READONLY, ALIGN=1

                  SPI2_IRQHandler PROC
;;;618    *******************************************************************************/
;;;619    void SPI2_IRQHandler(void)
000000  4770              BX       lr
;;;620    {
;;;621    }
;;;622    
                          ENDP


                          AREA ||i.SPI3_IRQHandler||, CODE, READONLY, ALIGN=1

                  SPI3_IRQHandler PROC
;;;852    *******************************************************************************/
;;;853    void SPI3_IRQHandler(void)
000000  4770              BX       lr
;;;854    {
;;;855    }
;;;856    
                          ENDP


                          AREA ||i.SVCHandler||, CODE, READONLY, ALIGN=1

                  SVCHandler PROC
;;;140    *******************************************************************************/
;;;141    void SVCHandler(void)
000000  4770              BX       lr
;;;142    {
;;;143    }
;;;144    
                          ENDP


                          AREA ||i.SysTickHandler||, CODE, READONLY, ALIGN=2

                  SysTickHandler PROC
;;;162    *******************************************************************************/
;;;163    void SysTickHandler(void)
000000  b510              PUSH     {r4,lr}
;;;164    {
;;;165        OS_CPU_SR  cpu_sr;
;;;166        OS_ENTER_CRITICAL();  //保存全局中断标志,关总中断/* Tell uC/OS-II that we are starting an ISR*/
000002  f7fffffe          BL       OS_CPU_SR_Save
000006  4604              MOV      r4,r0
;;;167        OSIntNesting++;
000008  4807              LDR      r0,|L44.40|
00000a  7800              LDRB     r0,[r0,#0]  ; OSIntNesting
00000c  1c40              ADDS     r0,r0,#1
00000e  4906              LDR      r1,|L44.40|
000010  7008              STRB     r0,[r1,#0]
;;;168        OS_EXIT_CRITICAL();	  //恢复全局中断标志
000012  4620              MOV      r0,r4
000014  f7fffffe          BL       OS_CPU_SR_Restore
;;;169        OSTimeTick();     /* Call uC/OS-II's OSTimeTick(),在os_core.c文件里定义,主要判断延时的任务是否计时到*/
000018  f7fffffe          BL       OSTimeTick
;;;170        /* Reload IWDG counter */
;;;171        IWDG_ReloadCounter();
00001c  f7fffffe          BL       IWDG_ReloadCounter
;;;172        OSIntExit();  //在os_core.c文件里定义,如果有更高优先级的任务就绪了,则执行一次任务切换
000020  f7fffffe          BL       OSIntExit
;;;173    }
000024  bd10              POP      {r4,pc}
;;;174    
                          ENDP

000026  0000              DCW      0x0000
                  |L44.40|
                          DCD      OSIntNesting

                          AREA ||i.TAMPER_IRQHandler||, CODE, READONLY, ALIGN=1

                  TAMPER_IRQHandler PROC
;;;203    *******************************************************************************/
;;;204    void TAMPER_IRQHandler(void)
000000  4770              BX       lr
;;;205    {
;;;206    }
;;;207    
                          ENDP


                          AREA ||i.TIM1_BRK_IRQHandler||, CODE, READONLY, ALIGN=1

                  TIM1_BRK_IRQHandler PROC
;;;483    *******************************************************************************/
;;;484    void TIM1_BRK_IRQHandler(void)
000000  4770              BX       lr
;;;485    {
;;;486    }
;;;487    
                          ENDP


                          AREA ||i.TIM1_CC_IRQHandler||, CODE, READONLY, ALIGN=1

                  TIM1_CC_IRQHandler PROC
;;;519    *******************************************************************************/
;;;520    void TIM1_CC_IRQHandler(void)
000000  4770              BX       lr
;;;521    {
;;;522    }
;;;523    
                          ENDP


                          AREA ||i.TIM1_TRG_COM_IRQHandler||, CODE, READONLY, ALIGN=1

                  TIM1_TRG_COM_IRQHandler PROC
;;;508    *******************************************************************************/
;;;509    void TIM1_TRG_COM_IRQHandler(void)
000000  4770              BX       lr
;;;510    {
;;;511    }
;;;512    
                          ENDP


                          AREA ||i.TIM1_UP_IRQHandler||, CODE, READONLY, ALIGN=1

                  TIM1_UP_IRQHandler PROC
;;;495    *******************************************************************************/
;;;496    void TIM1_UP_IRQHandler(void)
000000  4770              BX       lr
;;;497    {
;;;498        /* Clear the TIM1 Update pending bit */
;;;499    }
;;;500    
                          ENDP


                          AREA ||i.TIM2_IRQHandler||, CODE, READONLY, ALIGN=1

                  TIM2_IRQHandler PROC
;;;530    *******************************************************************************/
;;;531    void TIM2_IRQHandler(void)
000000  4770              BX       lr
;;;532    {
;;;533    }
;;;534    
                          ENDP


                          AREA ||i.TIM3_IRQHandler||, CODE, READONLY, ALIGN=1

                  TIM3_IRQHandler PROC
;;;541    *******************************************************************************/
;;;542    void TIM3_IRQHandler(void)
000000  4770              BX       lr
;;;543    {
;;;544    }
;;;545    
                          ENDP


                          AREA ||i.TIM4_IRQHandler||, CODE, READONLY, ALIGN=1

                  TIM4_IRQHandler PROC
;;;552    *******************************************************************************/
;;;553    void TIM4_IRQHandler(void)
000000  4770              BX       lr
;;;554    {
;;;555    }
;;;556    
                          ENDP


                          AREA ||i.TIM5_IRQHandler||, CODE, READONLY, ALIGN=1

                  TIM5_IRQHandler PROC
;;;841    *******************************************************************************/
;;;842    void TIM5_IRQHandler(void)
000000  4770              BX       lr
;;;843    {
;;;844    }
;;;845    
                          ENDP


                          AREA ||i.TIM6_IRQHandler||, CODE, READONLY, ALIGN=1

                  TIM6_IRQHandler PROC
;;;885    *******************************************************************************/
;;;886    void TIM6_IRQHandler(void)
000000  4770              BX       lr
;;;887    {
;;;888    }
;;;889    
                          ENDP


                          AREA ||i.TIM7_IRQHandler||, CODE, READONLY, ALIGN=1

                  TIM7_IRQHandler PROC
;;;896    *******************************************************************************/
;;;897    void TIM7_IRQHandler(void)
000000  4770              BX       lr
;;;898    {
;;;899    }
;;;900    
                          ENDP


                          AREA ||i.TIM8_BRK_IRQHandler||, CODE, READONLY, ALIGN=1

                  TIM8_BRK_IRQHandler PROC
;;;762    *******************************************************************************/
;;;763    void TIM8_BRK_IRQHandler(void)
000000  4770              BX       lr
;;;764    {
;;;765    }
;;;766    
                          ENDP


                          AREA ||i.TIM8_CC_IRQHandler||, CODE, READONLY, ALIGN=1

                  TIM8_CC_IRQHandler PROC
;;;797    *******************************************************************************/
;;;798    void TIM8_CC_IRQHandler(void)
000000  4770              BX       lr
;;;799    {
;;;800    }
;;;801    
                          ENDP


                          AREA ||i.TIM8_TRG_COM_IRQHandler||, CODE, READONLY, ALIGN=1

                  TIM8_TRG_COM_IRQHandler PROC
;;;786    *******************************************************************************/
;;;787    void TIM8_TRG_COM_IRQHandler(void)
000000  4770              BX       lr
;;;788    {
;;;789    }
;;;790    
                          ENDP


                          AREA ||i.TIM8_UP_IRQHandler||, CODE, READONLY, ALIGN=1

                  TIM8_UP_IRQHandler PROC
;;;774    *******************************************************************************/
;;;775    void TIM8_UP_IRQHandler(void)
000000  4770              BX       lr
;;;776    {
;;;777    }
;;;778    
                          ENDP


                          AREA ||i.UART4_IRQHandler||, CODE, READONLY, ALIGN=1

                  UART4_IRQHandler PROC
;;;863    *******************************************************************************/
;;;864    void UART4_IRQHandler(void)
000000  4770              BX       lr
;;;865    {
;;;866    }
;;;867    
                          ENDP


                          AREA ||i.UART5_IRQHandler||, CODE, READONLY, ALIGN=1

                  UART5_IRQHandler PROC
;;;874    *******************************************************************************/
;;;875    void UART5_IRQHandler(void)
000000  4770              BX       lr
;;;876    {
;;;877    }
;;;878    
                          ENDP


                          AREA ||i.USART1_IRQHandler||, CODE, READONLY, ALIGN=2

                  USART1_IRQHandler PROC
;;;631    static uint16_t Counter = 0;
;;;632    void USART1_IRQHandler(void)
000000  b570              PUSH     {r4-r6,lr}
;;;633    {
;;;634        char temp;
;;;635        OS_CPU_SR  cpu_sr;
;;;636        OS_ENTER_CRITICAL();  //保存全局中断标志,关总中断/* Tell uC/OS-II that we are starting an ISR*/
000002  f7fffffe          BL       OS_CPU_SR_Save
000006  4605              MOV      r5,r0
;;;637        OSIntNesting++;
000008  4816              LDR      r0,|L62.100|
00000a  7800              LDRB     r0,[r0,#0]  ; OSIntNesting
00000c  1c40              ADDS     r0,r0,#1
00000e  4915              LDR      r1,|L62.100|
000010  7008              STRB     r0,[r1,#0]
;;;638        OS_EXIT_CRITICAL();	  //恢复全局中断标志
000012  4628              MOV      r0,r5
000014  f7fffffe          BL       OS_CPU_SR_Restore
;;;639    
;;;640        if(USART_GetITStatus(USART1, USART_IT_RXNE) != RESET) 
000018  f2405125          MOV      r1,#0x525
00001c  4812              LDR      r0,|L62.104|
00001e  f7fffffe          BL       USART_GetITStatus
000022  b1d8              CBZ      r0,|L62.92|
;;;641    		{
;;;642            temp =  USART_ReceiveData(USART1);
000024  4810              LDR      r0,|L62.104|
000026  f7fffffe          BL       USART_ReceiveData
00002a  b2c4              UXTB     r4,r0
;;;643    				if(temp == 0xED)
00002c  2ced              CMP      r4,#0xed
00002e  d10c              BNE      |L62.74|
;;;644    				{
;;;645    					COM_Buffer[Counter] = temp;
000030  480e              LDR      r0,|L62.108|
000032  490f              LDR      r1,|L62.112|
000034  8809              LDRH     r1,[r1,#0]  ; Counter
000036  5444              STRB     r4,[r0,r1]
;;;646    					Counter = 0;	
000038  2000              MOVS     r0,#0
00003a  490d              LDR      r1,|L62.112|
00003c  8008              STRH     r0,[r1,#0]
;;;647    					OSMboxPost(DisMbox, (void *)COM_Buffer);
00003e  490b              LDR      r1,|L62.108|
000040  480c              LDR      r0,|L62.116|
000042  6800              LDR      r0,[r0,#0]  ; DisMbox
000044  f7fffffe          BL       OSMboxPost
000048  e008              B        |L62.92|
                  |L62.74|
;;;648    				}
;;;649    				else				
;;;650    				{
;;;651    					COM_Buffer[Counter] = temp;
00004a  4808              LDR      r0,|L62.108|
00004c  4908              LDR      r1,|L62.112|
00004e  8809              LDRH     r1,[r1,#0]  ; Counter
000050  5444              STRB     r4,[r0,r1]
;;;652                        Counter++;
000052  4807              LDR      r0,|L62.112|
000054  8800              LDRH     r0,[r0,#0]  ; Counter
000056  1c40              ADDS     r0,r0,#1
000058  4905              LDR      r1,|L62.112|
00005a  8008              STRH     r0,[r1,#0]
                  |L62.92|
;;;653    				}
;;;654    		}
;;;655    
;;;656        OSIntExit();  //在os_core.c文件里定义,如果有更高优先级的任务就绪了,则执行一次任务切换
00005c  f7fffffe          BL       OSIntExit
;;;657    }
000060  bd70              POP      {r4-r6,pc}
;;;658    
                          ENDP

000062  0000              DCW      0x0000
                  |L62.100|
                          DCD      OSIntNesting
                  |L62.104|
                          DCD      0x40013800
                  |L62.108|
                          DCD      COM_Buffer
                  |L62.112|
                          DCD      Counter
                  |L62.116|
                          DCD      DisMbox

                          AREA ||i.USART2_IRQHandler||, CODE, READONLY, ALIGN=2

                  USART2_IRQHandler PROC
;;;673    
;;;674    void USART2_IRQHandler(void)
000000  b570              PUSH     {r4-r6,lr}
;;;675    {
;;;676        char temp;
;;;677        OS_CPU_SR  cpu_sr;
;;;678        OS_ENTER_CRITICAL();  //保存全局中断标志,关总中断/* Tell uC/OS-II that we are starting an ISR*/
000002  f7fffffe          BL       OS_CPU_SR_Save
000006  4605              MOV      r5,r0
;;;679        OSIntNesting++;
000008  4816              LDR      r0,|L63.100|
00000a  7800              LDRB     r0,[r0,#0]  ; OSIntNesting
00000c  1c40              ADDS     r0,r0,#1
00000e  4915              LDR      r1,|L63.100|
000010  7008              STRB     r0,[r1,#0]
;;;680        OS_EXIT_CRITICAL();	  //恢复全局中断标志
000012  4628              MOV      r0,r5
000014  f7fffffe          BL       OS_CPU_SR_Restore
;;;681    
;;;682        if(USART_GetITStatus(USART2, USART_IT_RXNE) != RESET) 
000018  f2405125          MOV      r1,#0x525
00001c  4812              LDR      r0,|L63.104|
00001e  f7fffffe          BL       USART_GetITStatus
000022  b1d8              CBZ      r0,|L63.92|
;;;683    		{
;;;684            temp =  USART_ReceiveData(USART2);
000024  4810              LDR      r0,|L63.104|
000026  f7fffffe          BL       USART_ReceiveData
00002a  b2c4              UXTB     r4,r0
;;;685    				if(temp == 0xED)
00002c  2ced              CMP      r4,#0xed
00002e  d10c              BNE      |L63.74|
;;;686    				{
;;;687    					COM_485_Buffer[Counter_485] = temp;
000030  480e              LDR      r0,|L63.108|
000032  490f              LDR      r1,|L63.112|
000034  8809              LDRH     r1,[r1,#0]  ; Counter_485
000036  5444              STRB     r4,[r0,r1]
;;;688    					Counter_485 = 0;
000038  2000              MOVS     r0,#0
00003a  490d              LDR      r1,|L63.112|
00003c  8008              STRH     r0,[r1,#0]
;;;689    					OSMboxPost(TxMbox, (void *)COM_485_Buffer);
00003e  490b              LDR      r1,|L63.108|
000040  480c              LDR      r0,|L63.116|
000042  6800              LDR      r0,[r0,#0]  ; TxMbox
000044  f7fffffe          BL       OSMboxPost
000048  e008              B        |L63.92|
                  |L63.74|
;;;690    				}
;;;691    				else				
;;;692    				{
;;;693    					COM_485_Buffer[Counter_485] = temp;
00004a  4808              LDR      r0,|L63.108|
00004c  4908              LDR      r1,|L63.112|
00004e  8809              LDRH     r1,[r1,#0]  ; Counter_485
000050  5444              STRB     r4,[r0,r1]
;;;694                        Counter_485++;
000052  4807              LDR      r0,|L63.112|
000054  8800              LDRH     r0,[r0,#0]  ; Counter_485
000056  1c40              ADDS     r0,r0,#1
000058  4905              LDR      r1,|L63.112|
00005a  8008              STRH     r0,[r1,#0]
                  |L63.92|
;;;695    				}
;;;696    		}
;;;697    
;;;698        OSIntExit();  //在os_core.c文件里定义,如果有更高优先级的任务就绪了,则执行一次任务切换
00005c  f7fffffe          BL       OSIntExit
;;;699    }
000060  bd70              POP      {r4-r6,pc}
;;;700    
                          ENDP

000062  0000              DCW      0x0000
                  |L63.100|
                          DCD      OSIntNesting
                  |L63.104|
                          DCD      0x40004400
                  |L63.108|
                          DCD      COM_485_Buffer
                  |L63.112|
                          DCD      Counter_485
                  |L63.116|
                          DCD      TxMbox

                          AREA ||i.USART3_IRQHandler||, CODE, READONLY, ALIGN=2

                  USART3_IRQHandler PROC
;;;707    *******************************************************************************/
;;;708    void USART3_IRQHandler(void)
000000  b510              PUSH     {r4,lr}
;;;709    { 
;;;710        char temp;
;;;711        OS_CPU_SR  cpu_sr;
;;;712        OS_ENTER_CRITICAL();  //保存全局中断标志,关总中断/* Tell uC/OS-II that we are starting an ISR*/
000002  f7fffffe          BL       OS_CPU_SR_Save
000006  4604              MOV      r4,r0
;;;713        OSIntNesting++;
000008  4807              LDR      r0,|L64.40|
00000a  7800              LDRB     r0,[r0,#0]  ; OSIntNesting
00000c  1c40              ADDS     r0,r0,#1
00000e  4906              LDR      r1,|L64.40|
000010  7008              STRB     r0,[r1,#0]
;;;714        OS_EXIT_CRITICAL();	  //恢复全局中断标志
000012  4620              MOV      r0,r4
000014  f7fffffe          BL       OS_CPU_SR_Restore
;;;715    
;;;716        if(USART_GetITStatus(USART3, USART_IT_RXNE) != RESET) 
000018  f2405125          MOV      r1,#0x525
00001c  4803              LDR      r0,|L64.44|
00001e  f7fffffe          BL       USART_GetITStatus
;;;717    		{
;;;718    
;;;719    		}
;;;720    		OSIntExit();  //在os_core.c文件里定义,如果有更高优先级的任务就绪了,则执行一次任务切换
000022  f7fffffe          BL       OSIntExit
;;;721    }
000026  bd10              POP      {r4,pc}
;;;722    	
                          ENDP

                  |L64.40|
                          DCD      OSIntNesting
                  |L64.44|
                          DCD      0x40004800

                          AREA ||i.USBWakeUp_IRQHandler||, CODE, READONLY, ALIGN=1

                  USBWakeUp_IRQHandler PROC
;;;751    *******************************************************************************/
;;;752    void USBWakeUp_IRQHandler(void)
000000  4770              BX       lr
;;;753    {
;;;754    }
;;;755    
                          ENDP


                          AREA ||i.USB_HP_CAN_TX_IRQHandler||, CODE, READONLY, ALIGN=1

                  USB_HP_CAN_TX_IRQHandler PROC
;;;427    *******************************************************************************/
;;;428    void USB_HP_CAN_TX_IRQHandler(void)
000000  4770              BX       lr
;;;429    {
;;;430    }
;;;431    
                          ENDP


                          AREA ||i.USB_LP_CAN_RX0_IRQHandler||, CODE, READONLY, ALIGN=1

                  USB_LP_CAN_RX0_IRQHandler PROC
;;;439    *******************************************************************************/
;;;440    void USB_LP_CAN_RX0_IRQHandler(void)
000000  4770              BX       lr
;;;441    {
;;;442    }
;;;443    
                          ENDP


                          AREA ||i.UsageFaultException||, CODE, READONLY, ALIGN=1

                  UsageFaultException PROC
;;;115    *******************************************************************************/
;;;116    void UsageFaultException(void)
000000  bf00              NOP      
                  |L68.2|
;;;117    {
;;;118        /* Go to infinite loop when Usage Fault exception occurs */
;;;119        while(1) {
000002  e7fe              B        |L68.2|
;;;120        }
;;;121    }
;;;122    
                          ENDP


                          AREA ||i.WWDG_IRQHandler||, CODE, READONLY, ALIGN=1

                  WWDG_IRQHandler PROC
;;;181    *******************************************************************************/
;;;182    void WWDG_IRQHandler(void)
000000  4770              BX       lr
;;;183    {
;;;184    }
;;;185    
                          ENDP


                          AREA ||.bss||, DATA, NOINIT, ALIGN=0

                  COM_Buffer
                          %        500
                  COM_485_Buffer
                          %        500
                  com_buffer
                          %        20
                  GSM_buffer
                          %        100

                          AREA ||.data||, DATA, ALIGN=1

                  GSMreceive_flag
000000  01                DCB      0x01
                  GSMsend_OK
000001  00                DCB      0x00
                  GSM_send
000002  00                DCB      0x00
                  GSM_Stop
000003  00                DCB      0x00
                  O_OK
000004  00                DCB      0x00
                  GSM_counter
000005  00                DCB      0x00
                  GSM_step
000006  00                DCB      0x00
                  GSM_step_original
000007  00                DCB      0x00
                  GSM_stepM
000008  01                DCB      0x01
                  GSM_step5_n
000009  00                DCB      0x00
                  GSM_step6_n
00000a  0000              DCB      0x00,0x00
                  Counter
00000c  0000              DCW      0x0000
                  Counter_485
00000e  0000              DCW      0x0000
                  Datalen
000010  0000              DCW      0x0000
                  receive_flag
000012  00                DCB      0x00
                  com_counter
000013  00                DCB      0x00
                  HMIFrameTailStep
000014  00                DCB      0x00
                  O_counter
000015  00                DCB      0x00
